Certificate:
    Data:
        Version: 3 (0x2)
        Serial Number: 15410149698550869800 (0xd5dbd9811db7af28)
    Signature Algorithm: sha256WithRSAEncryption
        Issuer: CN=cacert, C=FI, ST=Helsinki, L=Helsinki, O=MariaDB
        Validity
            Not Before: Dec 11 00:20:48 2018 GMT
            Not After : Dec  6 00:20:48 2038 GMT
        Subject: CN=cacert, C=FI, ST=Helsinki, L=Helsinki, O=MariaDB
        Subject Public Key Info:
            Public Key Algorithm: rsaEncryption
                Public-Key: (2048 bit)
                Modulus:
                    00:9d:d0:23:bb:66:3a:56:c0:70:8d:3c:eb:30:40:
                    a3:17:f1:4f:c5:7c:dc:4c:d3:ad:4f:53:9b:fe:e4:
                    80:6b:90:fb:93:09:73:23:07:d1:81:00:0e:95:6b:
                    9a:40:87:8b:ca:32:f1:98:27:ea:9b:2a:41:28:9b:
                    4d:be:4a:45:63:78:2e:a8:82:71:a5:8b:35:73:ae:
                    52:59:b0:e9:7b:af:22:7e:74:96:64:48:52:f0:94:
                    06:74:f6:5a:90:e5:bf:69:12:53:54:af:69:8e:4c:
                    7b:d3:48:17:05:3b:dd:97:04:12:06:0a:81:71:49:
                    15:47:84:5c:0a:0a:31:72:0c:6d:4a:29:38:83:56:
                    6e:5e:ac:52:fc:63:ee:82:bd:30:c9:a3:b6:2c:23:
                    a6:47:52:46:fb:dc:04:3c:50:e0:59:21:2f:f7:08:
                    0c:da:0a:b9:ce:13:e8:c6:fe:10:f2:34:ef:28:b6:
                    05:53:26:b7:04:a1:00:73:9d:1a:c8:24:f6:43:48:
                    52:5c:de:c7:6b:06:0d:d2:a2:59:ff:98:1d:45:c1:
                    dc:a2:9d:5e:4a:99:98:e9:b8:bf:ae:af:e2:da:f7:
                    70:68:ce:c3:da:0d:bc:8e:22:c2:cb:81:0e:cc:94:
                    29:a1:72:f7:ea:98:64:02:59:c6:ca:b2:98:e6:dc:
                    88:0b
                Exponent: 65537 (0x10001)
        X509v3 extensions:
            X509v3 Subject Key Identifier: 
                79:FD:06:D4:85:B7:03:01:E1:17:60:35:3B:01:49:50:59:8A:15:A6
            X509v3 Authority Key Identifier: 
                keyid:79:FD:06:D4:85:B7:03:01:E1:17:60:35:3B:01:49:50:59:8A:15:A6

            X509v3 Basic Constraints: 
                CA:TRUE
    Signature Algorithm: sha256WithRSAEncryption
         11:60:db:26:54:a2:39:58:1d:b3:6f:ab:19:8d:0f:f3:ed:8c:
         07:70:0c:a1:f8:01:f1:c9:f0:b7:71:62:50:dd:ef:7a:3e:54:
         75:b9:ed:85:45:89:cb:5e:09:62:25:34:1f:16:b9:f2:1b:fe:
         3a:f4:04:32:40:e2:a3:cd:e5:42:d2:e0:a0:09:7e:bf:20:b6:
         38:14:a1:67:26:b9:ae:ec:61:45:47:19:4e:67:aa:0d:38:19:
         57:a2:db:a1:96:25:82:c3:02:64:b7:49:7d:27:21:8d:e4:ff:
         32:bb:49:7b:50:43:4e:6f:53:ee:74:a5:32:f6:3a:f7:28:02:
         07:3b:dc:fd:5d:e1:75:73:e4:65:5e:4f:4f:b6:3a:69:cc:55:
         a5:bf:b0:59:7d:c6:48:a5:22:d2:54:91:a9:7c:3d:7d:ff:29:
         d3:15:fe:b2:cf:39:42:67:a5:79:35:5c:ab:77:92:23:5c:49:
         c9:f5:52:2c:9e:e4:4b:7d:59:b7:df:93:e8:64:a5:ff:02:32:
         5f:e3:25:c2:a5:bd:c9:ab:9b:5c:fc:24:82:ed:ed:c1:48:e6:
         66:6a:28:c6:87:49:c7:43:78:84:7c:ca:bc:2d:3c:4e:1d:3e:
         4e:ae:87:f0:c5:39:b7:b7:48:6b:1e:45:ef:49:cb:b4:f2:c2:
         49:5f:23:09
-----BEGIN CERTIFICATE-----
MIIDfzCCAmegAwIBAgIJANXb2YEdt68oMA0GCSqGSIb3DQEBCwUAMFYxDzANBgNV
BAMMBmNhY2VydDELMAkGA1UEBhMCRkkxETAPBgNVBAgMCEhlbHNpbmtpMREwDwYD
VQQHDAhIZWxzaW5raTEQMA4GA1UECgwHTWFyaWFEQjAeFw0xODEyMTEwMDIwNDha
Fw0zODEyMDYwMDIwNDhaMFYxDzANBgNVBAMMBmNhY2VydDELMAkGA1UEBhMCRkkx
ETAPBgNVBAgMCEhlbHNpbmtpMREwDwYDVQQHDAhIZWxzaW5raTEQMA4GA1UECgwH
TWFyaWFEQjCCASIwDQYJKoZIhvcNAQEBBQADggEPADCCAQoCggEBAJ3QI7tmOlbA
cI086zBAoxfxT8V83EzTrU9Tm/7kgGuQ+5MJcyMH0YEADpVrmkCHi8oy8Zgn6psq
QSibTb5KRWN4LqiCcaWLNXOuUlmw6XuvIn50lmRIUvCUBnT2WpDlv2kSU1SvaY5M
e9NIFwU73ZcEEgYKgXFJFUeEXAoKMXIMbUopOINWbl6sUvxj7oK9MMmjtiwjpkdS
RvvcBDxQ4FkhL/cIDNoKuc4T6Mb+EPI07yi2BVMmtwShAHOdGsgk9kNIUlzex2sG
DdKiWf+YHUXB3KKdXkqZmOm4v66v4tr3cGjOw9oNvI4iwsuBDsyUKaFy9+qYZAJZ
xsqymObciAsCAwEAAaNQME4wHQYDVR0OBBYEFHn9BtSFtwMB4RdgNTsBSVBZihWm
MB8GA1UdIwQYMBaAFHn9BtSFtwMB4RdgNTsBSVBZihWmMAwGA1UdEwQFMAMBAf8w
DQYJKoZIhvcNAQELBQADggEBABFg2yZUojlYHbNvqxmND/PtjAdwDKH4AfHJ8Ldx
YlDd73o+VHW57YVFicteCWIlNB8WufIb/jr0BDJA4qPN5ULS4KAJfr8gtjgUoWcm
ua7sYUVHGU5nqg04GVei26GWJYLDAmS3SX0nIY3k/zK7SXtQQ05vU+50pTL2Ovco
Agc73P1d4XVz5GVeT0+2OmnMVaW/sFl9xkilItJUkal8PX3/KdMV/rLPOUJnpXk1
XKt3kiNcScn1Uiye5Et9Wbffk+hkpf8CMl/jJcKlvcmrm1z8JILt7cFI5mZqKMaH
ScdDeIR8yrwtPE4dPk6uh/DFObe3SGseRe9Jy7TywklfIwk=
-----END CERTIFICATE-----
