Certificate:
    Data:
        Version: 3 (0x2)
        Serial Number: 4 (0x4)
    Signature Algorithm: sha256WithRSAEncryption
        Issuer: CN=cacert, C=FI, ST=Helsinki, L=Helsinki, O=MariaDB
        Validity
            Not Before: Dec 11 00:20:53 2018 GMT
            Not After : Dec  6 00:20:53 2038 GMT
        Subject: C=FI, ST=Helsinki, L=Helsinki, O=MariaDB, CN=client
        Subject Public Key Info:
            Public Key Algorithm: rsaEncryption
                Public-Key: (1024 bit)
                Modulus:
                    00:95:7d:95:ee:56:69:5b:ff:75:ce:29:35:28:6b:
                    26:da:07:2c:d7:c9:69:aa:5f:8c:8e:b7:dc:b7:9c:
                    cb:89:fb:60:9f:f7:b1:86:44:d5:e8:fa:1c:2d:b7:
                    99:db:79:b6:27:71:bd:28:77:d4:50:a2:1f:53:0d:
                    20:c1:97:64:28:72:7f:66:37:1c:44:c8:57:a9:bc:
                    53:f7:24:a8:4e:13:d5:09:69:43:9b:02:c0:65:a7:
                    28:68:f4:5d:89:96:67:3d:d9:38:c4:d0:d6:3f:86:
                    e4:48:d5:cf:8c:cf:7c:e4:18:93:16:95:5d:9d:82:
                    64:bc:b4:59:5e:7d:af:d0:fd
                Exponent: 65537 (0x10001)
        X509v3 extensions:
            X509v3 Basic Constraints: 
                CA:FALSE
            Netscape Comment: 
                OpenSSL Generated Certificate
            X509v3 Subject Key Identifier: 
                9A:0D:71:28:06:69:B2:3F:64:02:26:B7:F1:9D:E5:86:CF:3D:89:D5
            X509v3 Authority Key Identifier: 
                keyid:79:FD:06:D4:85:B7:03:01:E1:17:60:35:3B:01:49:50:59:8A:15:A6

    Signature Algorithm: sha256WithRSAEncryption
         5f:87:46:7a:ea:42:70:4e:db:57:91:1e:8b:22:2a:d1:77:89:
         bd:5f:02:70:82:45:b4:09:90:0a:cc:d9:da:83:3e:79:24:4a:
         7a:a0:25:ce:33:18:8c:4c:79:65:c1:9f:89:3d:fd:ee:a6:6b:
         00:a8:92:7b:28:3c:80:55:68:6c:c6:71:ce:95:d3:27:ad:3a:
         d0:12:a6:da:3a:ef:df:d6:88:96:80:ba:28:f9:fd:a6:de:6d:
         3e:90:50:a2:ee:df:80:aa:ce:6e:a4:9b:57:3f:cd:2a:c9:e6:
         40:e8:b4:69:45:a2:6a:a5:38:4e:50:07:b1:a7:08:44:71:a6:
         9c:09:1b:d7:99:fc:4a:df:d3:d6:3d:b1:fc:60:0c:ab:db:f3:
         9f:ba:a7:63:5c:ea:14:b4:93:76:b0:c8:80:f3:c5:89:46:e2:
         e3:7c:f6:54:6b:61:e6:02:db:32:0c:e1:95:a7:9f:87:17:a0:
         1d:08:9f:69:97:da:1b:22:13:7d:8f:21:a4:7f:c6:52:48:df:
         0b:0f:16:16:99:4f:68:b7:23:f9:3f:01:fa:59:a0:2c:dd:39:
         e2:c0:30:42:fc:c4:fc:a8:db:09:26:aa:53:5c:b4:5d:9e:34:
         f8:0a:ea:9b:3f:a8:39:e5:b5:17:e7:0a:e5:28:47:ee:d7:12:
         2d:e0:66:c7
-----BEGIN CERTIFICATE-----
MIIDHjCCAgagAwIBAgIBBDANBgkqhkiG9w0BAQsFADBWMQ8wDQYDVQQDDAZjYWNl
cnQxCzAJBgNVBAYTAkZJMREwDwYDVQQIDAhIZWxzaW5raTERMA8GA1UEBwwISGVs
c2lua2kxEDAOBgNVBAoMB01hcmlhREIwHhcNMTgxMjExMDAyMDUzWhcNMzgxMjA2
MDAyMDUzWjBWMQswCQYDVQQGEwJGSTERMA8GA1UECAwISGVsc2lua2kxETAPBgNV
BAcMCEhlbHNpbmtpMRAwDgYDVQQKDAdNYXJpYURCMQ8wDQYDVQQDDAZjbGllbnQw
gZ8wDQYJKoZIhvcNAQEBBQADgY0AMIGJAoGBAJV9le5WaVv/dc4pNShrJtoHLNfJ
aapfjI633Lecy4n7YJ/3sYZE1ej6HC23mdt5tidxvSh31FCiH1MNIMGXZChyf2Y3
HETIV6m8U/ckqE4T1QlpQ5sCwGWnKGj0XYmWZz3ZOMTQ1j+G5EjVz4zPfOQYkxaV
XZ2CZLy0WV59r9D9AgMBAAGjezB5MAkGA1UdEwQCMAAwLAYJYIZIAYb4QgENBB8W
HU9wZW5TU0wgR2VuZXJhdGVkIENlcnRpZmljYXRlMB0GA1UdDgQWBBSaDXEoBmmy
P2QCJrfxneWGzz2J1TAfBgNVHSMEGDAWgBR5/QbUhbcDAeEXYDU7AUlQWYoVpjAN
BgkqhkiG9w0BAQsFAAOCAQEAX4dGeupCcE7bV5EeiyIq0XeJvV8CcIJFtAmQCszZ
2oM+eSRKeqAlzjMYjEx5ZcGfiT397qZrAKiSeyg8gFVobMZxzpXTJ6060BKm2jrv
39aIloC6KPn9pt5tPpBQou7fgKrObqSbVz/NKsnmQOi0aUWiaqU4TlAHsacIRHGm
nAkb15n8St/T1j2x/GAMq9vzn7qnY1zqFLSTdrDIgPPFiUbi43z2VGth5gLbMgzh
laefhxegHQifaZfaGyITfY8hpH/GUkjfCw8WFplPaLcj+T8B+lmgLN054sAwQvzE
/KjbCSaqU1y0XZ40+Arqmz+oOeW1F+cK5ShH7tcSLeBmxw==
-----END CERTIFICATE-----
