Certificate:
    Data:
        Version: 3 (0x2)
        Serial Number: 2 (0x2)
    Signature Algorithm: sha256WithRSAEncryption
        Issuer: CN=cacert, C=FI, ST=Helsinki, L=Helsinki, O=MariaDB
        Validity
            Not Before: Dec 11 00:20:48 2018 GMT
            Not After : Dec  7 00:20:48 2038 GMT
        Subject: C=FI, ST=Helsinki, L=Helsinki, O=MariaDB, CN=server-new
        Subject Public Key Info:
            Public Key Algorithm: rsaEncryption
                Public-Key: (1024 bit)
                Modulus:
                    00:c3:d9:46:a3:70:d9:2b:35:14:37:42:f5:ed:b2:
                    a9:0c:67:63:f9:09:8e:1c:7a:1d:59:5b:10:b1:d3:
                    e7:26:26:25:86:27:e8:b1:94:c0:1a:6b:1f:25:ca:
                    06:da:71:d6:30:76:d5:82:ff:78:0c:7a:7b:2c:39:
                    7b:9d:c2:47:e8:c3:09:c6:27:82:41:a1:78:ad:fc:
                    ca:e3:80:57:d8:86:1f:0b:19:db:61:f6:eb:3e:95:
                    e8:00:0b:20:6e:41:40:52:11:36:76:54:d4:d9:21:
                    8e:3f:6b:a3:f6:6c:57:f9:e5:57:30:9f:9e:d1:60:
                    c5:5f:32:21:b7:ad:09:74:07
                Exponent: 65537 (0x10001)
        X509v3 extensions:
            X509v3 Basic Constraints: 
                CA:FALSE
            Netscape Comment: 
                OpenSSL Generated Certificate
            X509v3 Subject Key Identifier: 
                E9:A8:55:FA:0B:EE:38:52:B3:9C:A1:43:00:14:CF:4E:F7:38:25:BB
            X509v3 Authority Key Identifier: 
                keyid:79:FD:06:D4:85:B7:03:01:E1:17:60:35:3B:01:49:50:59:8A:15:A6

    Signature Algorithm: sha256WithRSAEncryption
         7a:38:24:60:e3:4a:4b:96:72:25:82:c5:3a:23:5a:2d:a5:f3:
         23:a3:ee:18:3e:8e:33:a7:f3:8e:f7:3c:a1:8f:d4:ab:44:f2:
         ea:87:52:aa:33:33:22:7c:8e:b4:4a:c8:cf:a9:ea:81:1b:5a:
         a4:e0:ba:b7:d4:2d:ad:67:68:d5:39:22:c4:c2:b2:5a:ce:17:
         f6:13:34:bb:1f:95:c4:e5:62:6d:14:28:49:eb:6a:86:98:16:
         70:89:34:d0:cd:79:dc:a2:b8:9d:af:79:b9:60:30:e0:a7:1f:
         24:6c:52:fd:82:ba:c6:5a:fe:9e:6c:d6:4e:c9:f4:bb:7f:63:
         c1:2d:62:b2:3c:25:42:02:d4:d1:54:17:c0:0c:c9:57:69:cd:
         39:61:88:2a:e0:fa:cf:c3:92:14:7f:89:9b:43:0d:78:a7:bd:
         ed:44:dc:3a:50:e1:de:01:52:22:ac:47:83:72:b5:50:c9:3f:
         22:f7:ba:d6:14:b0:99:85:8a:cb:52:69:67:08:87:7b:b6:db:
         fa:6b:44:39:13:19:6d:d4:d5:49:18:e3:28:23:6b:2d:21:83:
         be:ac:f1:cc:00:f7:c9:94:7b:d7:ea:70:dc:43:c1:07:9c:10:
         21:6f:a8:ec:64:77:11:33:73:d9:23:63:9a:63:fe:41:21:44:
         a1:82:7b:79
-----BEGIN CERTIFICATE-----
MIIDIjCCAgqgAwIBAgIBAjANBgkqhkiG9w0BAQsFADBWMQ8wDQYDVQQDDAZjYWNl
cnQxCzAJBgNVBAYTAkZJMREwDwYDVQQIDAhIZWxzaW5raTERMA8GA1UEBwwISGVs
c2lua2kxEDAOBgNVBAoMB01hcmlhREIwHhcNMTgxMjExMDAyMDQ4WhcNMzgxMjA3
MDAyMDQ4WjBaMQswCQYDVQQGEwJGSTERMA8GA1UECAwISGVsc2lua2kxETAPBgNV
BAcMCEhlbHNpbmtpMRAwDgYDVQQKDAdNYXJpYURCMRMwEQYDVQQDDApzZXJ2ZXIt
bmV3MIGfMA0GCSqGSIb3DQEBAQUAA4GNADCBiQKBgQDD2UajcNkrNRQ3QvXtsqkM
Z2P5CY4ceh1ZWxCx0+cmJiWGJ+ixlMAaax8lygbacdYwdtWC/3gMenssOXudwkfo
wwnGJ4JBoXit/MrjgFfYhh8LGdth9us+legACyBuQUBSETZ2VNTZIY4/a6P2bFf5
5Vcwn57RYMVfMiG3rQl0BwIDAQABo3sweTAJBgNVHRMEAjAAMCwGCWCGSAGG+EIB
DQQfFh1PcGVuU1NMIEdlbmVyYXRlZCBDZXJ0aWZpY2F0ZTAdBgNVHQ4EFgQU6ahV
+gvuOFKznKFDABTPTvc4JbswHwYDVR0jBBgwFoAUef0G1IW3AwHhF2A1OwFJUFmK
FaYwDQYJKoZIhvcNAQELBQADggEBAHo4JGDjSkuWciWCxTojWi2l8yOj7hg+jjOn
8473PKGP1KtE8uqHUqozMyJ8jrRKyM+p6oEbWqTgurfULa1naNU5IsTCslrOF/YT
NLsflcTlYm0UKEnraoaYFnCJNNDNedyiuJ2veblgMOCnHyRsUv2CusZa/p5s1k7J
9Lt/Y8EtYrI8JUIC1NFUF8AMyVdpzTlhiCrg+s/DkhR/iZtDDXinve1E3DpQ4d4B
UiKsR4NytVDJPyL3utYUsJmFistSaWcIh3u22/prRDkTGW3U1UkY4ygjay0hg76s
8cwA98mUe9fqcNxDwQecECFvqOxkdxEzc9kjY5pj/kEhRKGCe3k=
-----END CERTIFICATE-----
