Certificate:
    Data:
        Version: 3 (0x2)
        Serial Number: 5 (0x5)
    Signature Algorithm: sha256WithRSAEncryption
        Issuer: CN=cacert, C=FI, ST=Helsinki, L=Helsinki, O=MariaDB
        Validity
            Not Before: Dec 11 00:20:53 2018 GMT
            Not After : Dec  6 00:20:53 2038 GMT
        Subject: C=FI, ST=Helsinki, L=Helsinki, O=MariaDB, CN=server
        Subject Public Key Info:
            Public Key Algorithm: rsaEncryption
                Public-Key: (1024 bit)
                Modulus:
                    00:bc:5a:d6:b5:b7:9e:dd:1d:ee:5e:59:37:de:ff:
                    a1:00:b7:85:20:8c:98:16:a6:e9:a9:0c:2a:74:41:
                    9b:99:10:ac:c0:80:0b:75:71:fe:13:2a:95:4f:6a:
                    59:80:80:4a:16:e5:66:cf:c0:c8:e7:09:3b:d5:2b:
                    4e:cf:39:b9:01:36:e9:ad:52:81:6a:76:93:bf:cc:
                    34:2d:36:cb:6c:8c:f2:e5:79:b6:61:f3:c2:fc:5f:
                    d4:ee:15:f5:22:5a:b1:01:eb:27:6f:33:43:93:b7:
                    85:aa:a7:a0:a5:df:73:47:64:df:21:e0:89:bc:29:
                    ac:7e:47:6c:29:17:f5:c0:53
                Exponent: 65537 (0x10001)
        X509v3 extensions:
            X509v3 Subject Alternative Name: 
                DNS:localhost
    Signature Algorithm: sha256WithRSAEncryption
         78:20:a5:5a:0e:cd:eb:e7:9a:43:84:b9:e3:41:bf:5c:4a:33:
         c1:cc:94:38:0f:52:ec:b4:2e:eb:d5:a9:29:13:28:b9:c5:10:
         20:9d:d5:2b:15:a2:45:e9:33:0b:85:88:f7:7c:cd:bb:6f:bf:
         eb:d1:40:3c:60:de:84:b7:89:f4:76:fe:bc:03:ad:8f:80:02:
         a7:28:54:1e:34:a1:63:e6:1e:15:56:46:43:26:74:f3:c3:81:
         6d:20:30:8d:be:df:4c:9a:3c:68:ba:2b:12:35:b8:05:d5:2e:
         dc:52:91:d5:5a:c3:9e:19:0d:09:a5:69:08:7c:df:8f:76:7f:
         b5:b1:1f:22:6b:1e:e6:68:e3:1d:58:69:a8:f6:7f:c6:e7:54:
         f8:8a:01:c1:e4:c4:8a:e3:85:be:9f:bf:a1:aa:09:d9:96:e5:
         94:6e:06:6d:15:ee:b6:ba:84:71:40:72:cd:d3:cc:39:1b:60:
         8d:70:8e:ef:26:71:76:66:c3:2f:de:87:9a:e8:82:81:25:89:
         b1:7c:d2:1f:26:63:ff:48:1b:95:57:bc:dd:85:9d:0a:5e:32:
         88:4c:d5:a0:81:35:0d:fa:5e:6c:26:ac:b2:76:be:06:ad:a1:
         d2:81:04:4a:6e:8f:dd:3e:74:70:86:0f:3f:86:80:c2:c1:10:
         f1:62:4a:8f
-----BEGIN CERTIFICATE-----
MIICuzCCAaOgAwIBAgIBBTANBgkqhkiG9w0BAQsFADBWMQ8wDQYDVQQDDAZjYWNl
cnQxCzAJBgNVBAYTAkZJMREwDwYDVQQIDAhIZWxzaW5raTERMA8GA1UEBwwISGVs
c2lua2kxEDAOBgNVBAoMB01hcmlhREIwHhcNMTgxMjExMDAyMDUzWhcNMzgxMjA2
MDAyMDUzWjBWMQswCQYDVQQGEwJGSTERMA8GA1UECAwISGVsc2lua2kxETAPBgNV
BAcMCEhlbHNpbmtpMRAwDgYDVQQKDAdNYXJpYURCMQ8wDQYDVQQDDAZzZXJ2ZXIw
gZ8wDQYJKoZIhvcNAQEBBQADgY0AMIGJAoGBALxa1rW3nt0d7l5ZN97/oQC3hSCM
mBam6akMKnRBm5kQrMCAC3Vx/hMqlU9qWYCAShblZs/AyOcJO9UrTs85uQE26a1S
gWp2k7/MNC02y2yM8uV5tmHzwvxf1O4V9SJasQHrJ28zQ5O3haqnoKXfc0dk3yHg
ibwprH5HbCkX9cBTAgMBAAGjGDAWMBQGA1UdEQQNMAuCCWxvY2FsaG9zdDANBgkq
hkiG9w0BAQsFAAOCAQEAeCClWg7N6+eaQ4S540G/XEozwcyUOA9S7LQu69WpKRMo
ucUQIJ3VKxWiRekzC4WI93zNu2+/69FAPGDehLeJ9Hb+vAOtj4ACpyhUHjShY+Ye
FVZGQyZ088OBbSAwjb7fTJo8aLorEjW4BdUu3FKR1VrDnhkNCaVpCHzfj3Z/tbEf
Imse5mjjHVhpqPZ/xudU+IoBweTEiuOFvp+/oaoJ2ZbllG4GbRXutrqEcUByzdPM
ORtgjXCO7yZxdmbDL96HmuiCgSWJsXzSHyZj/0gblVe83YWdCl4yiEzVoIE1Dfpe
bCassna+Bq2h0oEESm6P3T50cIYPP4aAwsEQ8WJKjw==
-----END CERTIFICATE-----
