Certificate:
    Data:
        Version: 3 (0x2)
        Serial Number: 1 (0x1)
    Signature Algorithm: sha256WithRSAEncryption
        Issuer: CN=cacert, C=FI, ST=Helsinki, L=Helsinki, O=MariaDB
        Validity
            Not Before: Dec 11 00:20:48 2018 GMT
            Not After : Dec  6 00:20:48 2038 GMT
        Subject: C=FI, ST=state or province within country, in other certificates in this file it is the same as L, L=location, usually an address but often ambiguously used, O=organization name, typically a company name, OU=organizational unit name, a division name within an organization, CN=localhost
        Subject Public Key Info:
            Public Key Algorithm: rsaEncryption
                Public-Key: (1024 bit)
                Modulus:
                    00:b7:71:6c:6b:40:e0:5d:ef:64:ee:23:10:7a:ad:
                    06:f2:a0:4e:41:97:6a:3e:a5:f9:7b:5f:4c:6c:8b:
                    8a:62:90:a0:de:8c:26:05:9f:4f:ea:56:0a:9a:7b:
                    1f:eb:7f:ad:1f:7a:f1:39:96:4c:0c:41:37:af:a9:
                    97:7d:19:e7:79:47:9a:c1:87:66:57:c8:ea:38:61:
                    20:fe:89:ee:76:16:83:d3:d3:ca:dd:bb:74:e6:9e:
                    9b:1c:3e:1c:0e:61:3b:09:87:87:98:ed:e4:16:b2:
                    5e:4b:ad:fb:82:71:dd:32:bb:32:cf:5b:57:74:ea:
                    16:59:d2:09:fa:20:6c:17:a3
                Exponent: 65537 (0x10001)
        X509v3 extensions:
            X509v3 Basic Constraints: 
                CA:FALSE
            Netscape Comment: 
                OpenSSL Generated Certificate
            X509v3 Subject Key Identifier: 
                39:C0:18:7B:28:09:E5:C5:28:53:C7:0A:43:F4:9A:4B:62:C3:EB:E3
            X509v3 Authority Key Identifier: 
                keyid:79:FD:06:D4:85:B7:03:01:E1:17:60:35:3B:01:49:50:59:8A:15:A6

    Signature Algorithm: sha256WithRSAEncryption
         86:ad:50:10:05:62:15:2a:c3:c1:bf:23:74:02:d8:6b:82:5e:
         81:06:c7:8d:18:8d:ef:0c:86:d1:e5:a2:2f:da:9d:84:93:42:
         c4:57:d8:ea:98:f2:6f:f0:9e:ab:15:d0:9c:e0:af:6a:be:ea:
         4f:0c:c7:ae:50:0b:c1:fc:78:16:83:8a:d9:03:58:f8:61:0b:
         e1:de:96:99:55:0b:e6:5f:ea:6b:77:61:7a:c7:43:99:7a:f8:
         1f:9d:22:a8:8d:85:db:ef:89:78:18:7b:e6:42:90:28:67:85:
         bf:d6:2e:90:bc:d0:35:37:57:ea:01:6c:80:85:18:da:e6:e9:
         db:e3:0e:20:53:2a:2c:3a:7e:82:ab:48:0a:97:c1:f0:90:90:
         1f:52:b4:3a:13:bd:95:55:83:8a:8e:a0:03:92:9e:cc:ab:04:
         c7:33:f0:21:ca:71:f9:85:71:90:d9:91:6e:b3:f9:54:57:8b:
         8a:d8:14:92:e1:c6:ca:09:73:21:2a:dd:6c:bf:14:3f:a4:8c:
         0f:e1:1e:c0:ce:fe:4b:cd:2a:1e:3f:6a:94:c1:03:d7:96:72:
         e2:2e:dd:58:ed:a1:8a:d3:aa:24:7f:8d:e6:89:bb:72:53:a4:
         0d:1e:05:cc:97:67:f9:0c:5e:45:b1:af:c9:a1:79:f2:38:cb:
         e4:8a:48:ac
-----BEGIN CERTIFICATE-----
MIIEETCCAvmgAwIBAgIBATANBgkqhkiG9w0BAQsFADBWMQ8wDQYDVQQDDAZjYWNl
cnQxCzAJBgNVBAYTAkZJMREwDwYDVQQIDAhIZWxzaW5raTERMA8GA1UEBwwISGVs
c2lua2kxEDAOBgNVBAoMB01hcmlhREIwHhcNMTgxMjExMDAyMDQ4WhcNMzgxMjA2
MDAyMDQ4WjCCAUcxCzAJBgNVBAYTAkZJMWEwXwYDVQQIDFhzdGF0ZSBvciBwcm92
aW5jZSB3aXRoaW4gY291bnRyeSwgaW4gb3RoZXIgY2VydGlmaWNhdGVzIGluIHRo
aXMgZmlsZSBpdCBpcyB0aGUgc2FtZSBhcyBMMUAwPgYDVQQHDDdsb2NhdGlvbiwg
dXN1YWxseSBhbiBhZGRyZXNzIGJ1dCBvZnRlbiBhbWJpZ3VvdXNseSB1c2VkMTQw
MgYDVQQKDCtvcmdhbml6YXRpb24gbmFtZSwgdHlwaWNhbGx5IGEgY29tcGFueSBu
YW1lMUkwRwYDVQQLDEBvcmdhbml6YXRpb25hbCB1bml0IG5hbWUsIGEgZGl2aXNp
b24gbmFtZSB3aXRoaW4gYW4gb3JnYW5pemF0aW9uMRIwEAYDVQQDDAlsb2NhbGhv
c3QwgZ8wDQYJKoZIhvcNAQEBBQADgY0AMIGJAoGBALdxbGtA4F3vZO4jEHqtBvKg
TkGXaj6l+XtfTGyLimKQoN6MJgWfT+pWCpp7H+t/rR968TmWTAxBN6+pl30Z53lH
msGHZlfI6jhhIP6J7nYWg9PTyt27dOaemxw+HA5hOwmHh5jt5BayXkut+4Jx3TK7
Ms9bV3TqFlnSCfogbBejAgMBAAGjezB5MAkGA1UdEwQCMAAwLAYJYIZIAYb4QgEN
BB8WHU9wZW5TU0wgR2VuZXJhdGVkIENlcnRpZmljYXRlMB0GA1UdDgQWBBQ5wBh7
KAnlxShTxwpD9JpLYsPr4zAfBgNVHSMEGDAWgBR5/QbUhbcDAeEXYDU7AUlQWYoV
pjANBgkqhkiG9w0BAQsFAAOCAQEAhq1QEAViFSrDwb8jdALYa4JegQbHjRiN7wyG
0eWiL9qdhJNCxFfY6pjyb/CeqxXQnOCvar7qTwzHrlALwfx4FoOK2QNY+GEL4d6W
mVUL5l/qa3dhesdDmXr4H50iqI2F2++JeBh75kKQKGeFv9YukLzQNTdX6gFsgIUY
2ubp2+MOIFMqLDp+gqtICpfB8JCQH1K0OhO9lVWDio6gA5KezKsExzPwIcpx+YVx
kNmRbrP5VFeLitgUkuHGyglzISrdbL8UP6SMD+EewM7+S80qHj9qlMED15Zy4i7d
WO2hitOqJH+N5om7clOkDR4FzJdn+QxeRbGvyaF58jjL5IpIrA==
-----END CERTIFICATE-----
