Certificate:
    Data:
        Version: 3 (0x2)
        Serial Number: 3 (0x3)
    Signature Algorithm: sha256WithRSAEncryption
        Issuer: CN=cacert, C=FI, ST=Helsinki, L=Helsinki, O=MariaDB
        Validity
            Not Before: Dec 11 00:20:53 2018 GMT
            Not After : Dec  6 00:20:53 2038 GMT
        Subject: C=FI, ST=Helsinki, L=Helsinki, O=MariaDB, CN=server8k
        Subject Public Key Info:
            Public Key Algorithm: rsaEncryption
                Public-Key: (8192 bit)
                Modulus:
                    00:9a:72:1c:91:7d:0b:e5:ae:dd:d9:94:99:05:8b:
                    15:f3:a0:35:4d:56:10:fc:52:bc:3f:42:02:0b:30:
                    b7:be:87:29:15:c6:5f:93:49:48:63:14:d8:bb:43:
                    b3:f7:82:02:b2:05:a4:35:09:98:6f:02:21:9c:ff:
                    27:0f:29:8a:a0:a2:db:a6:43:4d:e8:55:73:a3:ee:
                    63:6e:6d:d7:67:c8:af:7c:86:ca:4a:dc:e7:b6:45:
                    29:35:55:02:38:1f:24:ef:8a:21:4b:e9:bd:bc:91:
                    f6:00:96:cd:63:6c:98:60:c1:4b:8d:e7:a8:22:ea:
                    a0:af:e1:60:b7:3b:d6:00:16:c8:ec:b4:02:71:6c:
                    6a:d4:ee:bb:07:d2:5a:f1:cc:25:fb:a1:30:20:51:
                    c5:fd:15:af:19:20:8e:70:b8:a5:57:06:4e:f5:c7:
                    51:2d:48:24:2e:40:84:0d:dc:1f:c4:e8:5c:bd:c7:
                    d6:9f:c2:e7:ec:04:91:10:15:dd:e5:8d:d4:e7:d7:
                    1b:e9:00:75:da:64:8f:d7:75:c6:9c:61:1f:88:17:
                    17:20:99:6f:db:a2:22:7e:f6:1f:98:63:f8:21:87:
                    c7:2f:f9:93:96:f2:f7:ff:69:5b:c7:8b:7c:fb:f0:
                    b1:a9:63:b9:7c:dc:4f:5d:b4:d3:d2:22:97:f8:4c:
                    48:ab:5d:21:62:d7:e3:09:14:e2:74:cf:3d:06:36:
                    ae:ae:07:ae:2a:24:a6:d3:36:a4:00:c7:8a:9a:91:
                    9d:8b:bb:87:71:bb:3c:29:df:36:db:33:31:10:3b:
                    c8:61:98:19:3b:f9:a7:78:a2:2f:f0:25:44:0f:4c:
                    3e:de:52:5c:14:c3:14:7f:79:be:69:75:7b:a6:d7:
                    b8:29:6a:09:c0:1e:7c:04:24:e9:c5:e8:ba:01:ef:
                    ed:41:11:7d:c2:09:27:d4:fe:b4:33:7d:f8:67:73:
                    8e:8e:ee:31:4c:d3:a6:76:6e:a5:69:a6:9e:c0:f3:
                    95:58:f0:03:80:af:8e:45:b3:dd:28:95:06:a5:da:
                    d1:03:d3:1f:8c:b0:42:b6:d5:4b:60:21:1f:b9:57:
                    1c:70:66:32:86:d4:eb:3c:a5:11:07:10:9c:b2:b1:
                    ec:43:49:80:52:14:74:8f:c0:ba:f9:72:63:0b:fa:
                    f3:9f:62:b2:44:e2:0b:26:12:d5:4a:b9:7f:81:fb:
                    48:a2:5c:1b:82:7d:c7:34:58:8f:ff:40:b5:45:dd:
                    60:67:a1:de:fb:3c:32:58:7b:6a:5c:c9:47:52:e0:
                    37:54:5a:b1:e2:7d:0b:fe:b1:79:11:b0:ff:1e:e5:
                    9c:70:f8:0b:2c:ff:1b:25:f7:67:69:c5:b8:99:b3:
                    79:df:56:10:63:a8:1c:41:7f:0f:1c:a2:49:c0:f9:
                    f9:69:c6:b9:52:ee:63:c4:04:85:bf:95:53:62:54:
                    d8:40:cf:78:d3:04:9b:1d:9e:2a:78:09:8e:55:b9:
                    21:da:a5:37:6e:8b:dd:5c:93:02:6e:c0:fb:e2:7d:
                    94:05:8d:a4:24:7d:f3:d0:56:32:fe:34:e9:4a:04:
                    62:71:d1:29:6d:97:58:8e:8e:7e:4a:d8:7d:b0:c4:
                    eb:79:a0:b8:32:69:64:45:bf:75:08:d3:e3:27:df:
                    71:f4:34:11:38:5a:1a:f4:d0:bf:c5:be:27:60:16:
                    99:ea:a1:ae:b2:0b:c2:d7:bb:91:0e:89:c7:da:ef:
                    3d:29:6c:76:9f:8c:40:cb:d5:54:77:99:96:93:3b:
                    11:7d:ae:00:b4:12:d0:47:2f:f3:54:30:4f:03:12:
                    60:77:50:42:83:72:0a:09:5a:f7:56:84:9c:00:69:
                    66:cb:e2:a8:39:fb:4f:06:74:ea:13:29:92:30:26:
                    e9:0d:67:af:fb:4c:dc:5c:9d:73:b1:aa:3d:92:a6:
                    ff:c7:f9:b2:66:2b:de:e2:c2:e3:0f:82:cf:5c:3e:
                    04:b6:bd:7c:ca:1b:11:c1:28:dd:37:8a:be:49:70:
                    98:00:dd:f9:eb:2f:4e:91:8b:ef:cd:91:7e:d2:0e:
                    d2:f9:f0:60:c7:d4:a7:64:27:04:4f:aa:33:33:42:
                    c2:1f:cf:25:b2:3d:32:bf:73:bc:de:2a:45:79:bc:
                    b0:09:66:f5:71:e5:3d:5d:35:a0:b4:03:fd:2e:54:
                    8a:2a:a1:e9:05:12:55:65:4e:80:84:b6:8b:16:c1:
                    4b:9b:c1:90:5b:cb:4c:bc:4c:6c:44:0a:be:86:4c:
                    43:c4:19:c0:6c:7d:fd:c5:33:ea:15:16:93:c1:a6:
                    5f:85:2a:d1:c9:74:80:38:7d:b3:e4:dc:3c:19:7c:
                    a2:ad:74:5e:17:22:9f:d1:fb:59:b1:46:96:5e:98:
                    b0:72:e2:c5:ea:86:ec:81:c0:be:74:ab:13:c9:72:
                    32:2a:4d:bb:72:d6:82:09:a5:19:20:da:a4:95:4e:
                    7b:5f:4c:b4:93:ce:c3:78:97:41:1d:c6:da:cd:50:
                    dc:a0:c4:50:b5:ed:66:2c:11:b4:9c:95:20:50:11:
                    00:5e:bf:df:bb:20:24:f1:5f:e1:e4:e0:2b:ba:57:
                    65:02:5a:90:37:87:1f:31:74:82:ce:f2:ce:d8:7e:
                    24:24:ed:25:37:fd:4a:19:76:62:a1:35:23:fe:69:
                    96:4d:f0:67:1d:5f:c2:a9:1e:30:02:76:61:bd:fe:
                    ea:18:8a:59:ed:75:ee:36:e6:7e:b4:26:c7:ad:03:
                    89:2c:a9:08:63
                Exponent: 65537 (0x10001)
        X509v3 extensions:
            X509v3 Basic Constraints: 
                CA:FALSE
            Netscape Comment: 
                OpenSSL Generated Certificate
            X509v3 Subject Key Identifier: 
                23:8C:1F:DB:58:7F:AD:43:AB:DF:54:AA:32:9F:05:D8:25:2E:B7:02
            X509v3 Authority Key Identifier: 
                keyid:79:FD:06:D4:85:B7:03:01:E1:17:60:35:3B:01:49:50:59:8A:15:A6

    Signature Algorithm: sha256WithRSAEncryption
         0d:0e:0f:e5:c6:cb:bb:e3:f7:af:d3:b0:a0:71:60:b3:75:11:
         5a:bb:62:6b:93:2f:ee:fb:92:f0:e1:3c:17:ec:af:82:0e:d5:
         ab:e9:6a:bb:96:82:b7:57:db:c2:ef:c9:2c:72:e7:ff:08:fd:
         87:ef:77:71:a8:74:89:e4:e3:a3:9b:38:f8:f9:73:97:fa:62:
         b2:ee:a4:79:9d:91:eb:b4:1f:d0:28:d0:ee:2c:17:2f:36:63:
         b6:e6:ca:96:15:e6:4e:bb:fe:23:77:dc:f5:dc:94:5d:38:8e:
         31:2f:44:ba:25:6a:90:fb:82:2f:b3:d6:49:16:0c:03:9a:3b:
         eb:0c:3c:27:c6:72:28:69:11:19:18:f8:49:e0:aa:fd:4b:c1:
         ba:3f:ce:71:4b:16:a7:36:43:62:bb:88:39:53:25:39:7c:2f:
         44:0f:dc:a5:44:cd:ff:90:d3:c5:ac:1a:6c:8e:ce:3c:db:c5:
         45:aa:86:92:66:80:88:8a:20:0c:99:e2:e5:9a:3a:a3:7d:5d:
         41:70:74:18:c3:65:d9:4d:a9:89:f4:c0:92:1f:c0:e7:f2:56:
         83:df:e6:24:21:6b:da:16:61:cb:09:01:f2:d2:ef:2e:0a:04:
         44:7b:2a:57:13:28:61:4e:2c:91:94:5a:f6:d1:86:82:a4:0e:
         3b:5d:82:d5
-----BEGIN CERTIFICATE-----
MIIGpDCCBYygAwIBAgIBAzANBgkqhkiG9w0BAQsFADBWMQ8wDQYDVQQDDAZjYWNl
cnQxCzAJBgNVBAYTAkZJMREwDwYDVQQIDAhIZWxzaW5raTERMA8GA1UEBwwISGVs
c2lua2kxEDAOBgNVBAoMB01hcmlhREIwHhcNMTgxMjExMDAyMDUzWhcNMzgxMjA2
MDAyMDUzWjBYMQswCQYDVQQGEwJGSTERMA8GA1UECAwISGVsc2lua2kxETAPBgNV
BAcMCEhlbHNpbmtpMRAwDgYDVQQKDAdNYXJpYURCMREwDwYDVQQDDAhzZXJ2ZXI4
azCCBCIwDQYJKoZIhvcNAQEBBQADggQPADCCBAoCggQBAJpyHJF9C+Wu3dmUmQWL
FfOgNU1WEPxSvD9CAgswt76HKRXGX5NJSGMU2LtDs/eCArIFpDUJmG8CIZz/Jw8p
iqCi26ZDTehVc6PuY25t12fIr3yGykrc57ZFKTVVAjgfJO+KIUvpvbyR9gCWzWNs
mGDBS43nqCLqoK/hYLc71gAWyOy0AnFsatTuuwfSWvHMJfuhMCBRxf0VrxkgjnC4
pVcGTvXHUS1IJC5AhA3cH8ToXL3H1p/C5+wEkRAV3eWN1OfXG+kAddpkj9d1xpxh
H4gXFyCZb9uiIn72H5hj+CGHxy/5k5by9/9pW8eLfPvwsaljuXzcT12009Iil/hM
SKtdIWLX4wkU4nTPPQY2rq4HriokptM2pADHipqRnYu7h3G7PCnfNtszMRA7yGGY
GTv5p3iiL/AlRA9MPt5SXBTDFH95vml1e6bXuClqCcAefAQk6cXougHv7UERfcIJ
J9T+tDN9+Gdzjo7uMUzTpnZupWmmnsDzlVjwA4CvjkWz3SiVBqXa0QPTH4ywQrbV
S2AhH7lXHHBmMobU6zylEQcQnLKx7ENJgFIUdI/AuvlyYwv6859iskTiCyYS1Uq5
f4H7SKJcG4J9xzRYj/9AtUXdYGeh3vs8Mlh7alzJR1LgN1RaseJ9C/6xeRGw/x7l
nHD4Cyz/GyX3Z2nFuJmzed9WEGOoHEF/DxyiScD5+WnGuVLuY8QEhb+VU2JU2EDP
eNMEmx2eKngJjlW5IdqlN26L3VyTAm7A++J9lAWNpCR989BWMv406UoEYnHRKW2X
WI6OfkrYfbDE63mguDJpZEW/dQjT4yffcfQ0EThaGvTQv8W+J2AWmeqhrrILwte7
kQ6Jx9rvPSlsdp+MQMvVVHeZlpM7EX2uALQS0Ecv81QwTwMSYHdQQoNyCgla91aE
nABpZsviqDn7TwZ06hMpkjAm6Q1nr/tM3Fydc7GqPZKm/8f5smYr3uLC4w+Cz1w+
BLa9fMobEcEo3TeKvklwmADd+esvTpGL782RftIO0vnwYMfUp2QnBE+qMzNCwh/P
JbI9Mr9zvN4qRXm8sAlm9XHlPV01oLQD/S5Uiiqh6QUSVWVOgIS2ixbBS5vBkFvL
TLxMbEQKvoZMQ8QZwGx9/cUz6hUWk8GmX4Uq0cl0gDh9s+TcPBl8oq10Xhcin9H7
WbFGll6YsHLixeqG7IHAvnSrE8lyMipNu3LWggmlGSDapJVOe19MtJPOw3iXQR3G
2s1Q3KDEULXtZiwRtJyVIFARAF6/37sgJPFf4eTgK7pXZQJakDeHHzF0gs7yzth+
JCTtJTf9Shl2YqE1I/5plk3wZx1fwqkeMAJ2Yb3+6hiKWe117jbmfrQmx60DiSyp
CGMCAwEAAaN7MHkwCQYDVR0TBAIwADAsBglghkgBhvhCAQ0EHxYdT3BlblNTTCBH
ZW5lcmF0ZWQgQ2VydGlmaWNhdGUwHQYDVR0OBBYEFCOMH9tYf61Dq99UqjKfBdgl
LrcCMB8GA1UdIwQYMBaAFHn9BtSFtwMB4RdgNTsBSVBZihWmMA0GCSqGSIb3DQEB
CwUAA4IBAQANDg/lxsu74/ev07CgcWCzdRFau2Jrky/u+5Lw4TwX7K+CDtWr6Wq7
loK3V9vC78kscuf/CP2H73dxqHSJ5OOjmzj4+XOX+mKy7qR5nZHrtB/QKNDuLBcv
NmO25sqWFeZOu/4jd9z13JRdOI4xL0S6JWqQ+4Ivs9ZJFgwDmjvrDDwnxnIoaREZ
GPhJ4Kr9S8G6P85xSxanNkNiu4g5UyU5fC9ED9ylRM3/kNPFrBpsjs4828VFqoaS
ZoCIiiAMmeLlmjqjfV1BcHQYw2XZTamJ9MCSH8Dn8laD3+YkIWvaFmHLCQHy0u8u
CgREeypXEyhhTiyRlFr20YaCpA47XYLV
-----END CERTIFICATE-----
